target datalayout = "e-m:e-p270:32:32-p271:32:32-p272:64:64-i64:64-i128:128-f80:128-n8:16:32:64-S128"
target triple = "x86_64-pc-linux-gnu"

%struct.UConverterSharedData = type { i32, i32, ptr, ptr, i8, i8, ptr, i32, %struct.UConverterMBCSTable }
%struct.UConverterMBCSTable = type { i8, i8, i8, i32, ptr, ptr, ptr, ptr, ptr, ptr, [64 x i16], ptr, ptr, i32, i8, i8, i8, i16, i32, ptr, ptr, ptr, ptr }

; Function Attrs: mustprogress uwtable
define internal void @_ZL15ucnv_MBCSUnloadP20UConverterSharedData(ptr noundef %0) #0 {
  %2 = alloca ptr, align 8
  %3 = alloca ptr, align 8
  store ptr %0, ptr %2, align 8, !tbaa !3
  call void @llvm.lifetime.start.p0(i64 8, ptr %3) #10
  %4 = load ptr, ptr %2, align 8, !tbaa !3
  %5 = getelementptr inbounds nuw %struct.UConverterSharedData, ptr %4, i32 0, i32 8
  store ptr %5, ptr %3, align 8, !tbaa !15
  %6 = load ptr, ptr %3, align 8, !tbaa !15
  %7 = getelementptr inbounds nuw %struct.UConverterMBCSTable, ptr %6, i32 0, i32 5
  %8 = load ptr, ptr %7, align 8, !tbaa !161
  %9 = icmp ne ptr %8, null
  br i1 %9, label %10, label %14

10:                                               ; preds = %1
  %11 = load ptr, ptr %3, align 8, !tbaa !15
  %12 = getelementptr inbounds nuw %struct.UConverterMBCSTable, ptr %11, i32 0, i32 5
  %13 = load ptr, ptr %12, align 8, !tbaa !161
  call void @uprv_free_77(ptr noundef %13)
  br label %14

14:                                               ; preds = %10, %1
  %15 = load ptr, ptr %3, align 8, !tbaa !15
  %16 = getelementptr inbounds nuw %struct.UConverterMBCSTable, ptr %15, i32 0, i32 2
  %17 = load i8, ptr %16, align 2, !tbaa !170
  %18 = icmp ne i8 %17, 0
  br i1 %18, label %19, label %23

19:                                               ; preds = %14
  %20 = load ptr, ptr %3, align 8, !tbaa !15
  %21 = getelementptr inbounds nuw %struct.UConverterMBCSTable, ptr %20, i32 0, i32 4
  %22 = load ptr, ptr %21, align 8, !tbaa !165
  call void @uprv_free_77(ptr noundef %22)
  br label %23

23:                                               ; preds = %19, %14
  %24 = load ptr, ptr %3, align 8, !tbaa !15
  %25 = getelementptr inbounds nuw %struct.UConverterMBCSTable, ptr %24, i32 0, i32 21
  %26 = load ptr, ptr %25, align 8, !tbaa !160
  %27 = icmp ne ptr %26, null
  br i1 %27, label %28, label %32

28:                                               ; preds = %23
  %29 = load ptr, ptr %3, align 8, !tbaa !15
  %30 = getelementptr inbounds nuw %struct.UConverterMBCSTable, ptr %29, i32 0, i32 21
  %31 = load ptr, ptr %30, align 8, !tbaa !160
  call void @ucnv_unload_77(ptr noundef %31)
  br label %32

32:                                               ; preds = %28, %23
  %33 = load ptr, ptr %3, align 8, !tbaa !15
  %34 = getelementptr inbounds nuw %struct.UConverterMBCSTable, ptr %33, i32 0, i32 19
  %35 = load ptr, ptr %34, align 8, !tbaa !164
  %36 = icmp ne ptr %35, null
  br i1 %36, label %37, label %41

37:                                               ; preds = %32
  %38 = load ptr, ptr %3, align 8, !tbaa !15
  %39 = getelementptr inbounds nuw %struct.UConverterMBCSTable, ptr %38, i32 0, i32 19
  %40 = load ptr, ptr %39, align 8, !tbaa !164
  call void @uprv_free_77(ptr noundef %40)
  br label %41

41:                                               ; preds = %37, %32
  call void @llvm.lifetime.end.p0(i64 8, ptr %3) #10
  ret void
}