; Function Attrs: mustprogress uwtable
define internal void @_ZL15ucnv_MBCSUnloadP20UConverterSharedData(ptr noundef readonly captures(none) %0) #0 {
  %2 = getelementptr inbounds nuw i8, ptr %0, i64 64
  %3 = load ptr, ptr %2, align 8, !tbaa !136
  %.not = icmp eq ptr %3, null
  br i1 %.not, label %5, label %4

4:                                                ; preds = %1
  tail call void @uprv_free_77(ptr noundef nonnull %3)
  br label %5

5:                                                ; preds = %4, %1
  %6 = getelementptr inbounds nuw i8, ptr %0, i64 50
  %7 = load i8, ptr %6, align 2, !tbaa !143
  %.not11 = icmp eq i8 %7, 0
  br i1 %.not11, label %11, label %8

8:                                                ; preds = %5
  %9 = getelementptr inbounds nuw i8, ptr %0, i64 56
  %10 = load ptr, ptr %9, align 8, !tbaa !138
  tail call void @uprv_free_77(ptr noundef %10)
  br label %11

11:                                               ; preds = %8, %5
  %12 = getelementptr inbounds nuw i8, ptr %0, i64 280
  %13 = load ptr, ptr %12, align 8, !tbaa !135
  %.not12 = icmp eq ptr %13, null
  br i1 %.not12, label %15, label %14

14:                                               ; preds = %11
  tail call void @ucnv_unload_77(ptr noundef nonnull %13)
  br label %15

15:                                               ; preds = %14, %11
  %16 = getelementptr inbounds nuw i8, ptr %0, i64 264
  %17 = load ptr, ptr %16, align 8, !tbaa !163
  %.not13 = icmp eq ptr %17, null
  br i1 %.not13, label %19, label %18

18:                                               ; preds = %15
  tail call void @uprv_free_77(ptr noundef nonnull %17)
  br label %19

19:                                               ; preds = %18, %15
  ret void
}